target datalayout = "e-m:e-p270:32:32-p271:32:32-p272:64:64-i64:64-i128:128-f80:128-n8:16:32:64-S128"
target triple = "x86_64-pc-linux-gnu"

%struct.PHP_XXH64_CTX = type { %struct.XXH_NAMESPACEXXH64_state_s }
%struct.XXH_NAMESPACEXXH64_state_s = type { i64, [4 x i64], [4 x i64], i32, i32, i64 }

; Function Attrs: nounwind uwtable
define internal i32 @XXH_read32(ptr noundef %0) #0 {
  %2 = alloca ptr, align 8
  %3 = alloca i32, align 4
  store ptr %0, ptr %2, align 8, !tbaa !4
  call void @llvm.lifetime.start.p0(i64 4, ptr %3) #14
  %4 = load ptr, ptr %2, align 8, !tbaa !4
  %5 = call ptr @XXH_memcpy(ptr noundef %3, ptr noundef %4, i64 noundef 4)
  %6 = load i32, ptr %3, align 4, !tbaa !20
  call void @llvm.lifetime.end.p0(i64 4, ptr %3) #14
  ret i32 %6
}

; Function Attrs: nounwind uwtable
define internal i64 @XXH_read64(ptr noundef %0) #0 {
  %2 = alloca ptr, align 8
  %3 = alloca i64, align 8
  store ptr %0, ptr %2, align 8, !tbaa !4
  call void @llvm.lifetime.start.p0(i64 8, ptr %3) #14
  %4 = load ptr, ptr %2, align 8, !tbaa !4
  %5 = call ptr @XXH_memcpy(ptr noundef %3, ptr noundef %4, i64 noundef 8)
  %6 = load i64, ptr %3, align 8, !tbaa !15
  call void @llvm.lifetime.end.p0(i64 8, ptr %3) #14
  ret i64 %6
}

; Function Attrs: alwaysinline nounwind uwtable
define internal i32 @XXH_readLE32(ptr noundef %0) #4 {
  %2 = alloca ptr, align 8
  store ptr %0, ptr %2, align 8, !tbaa !4
  %3 = load ptr, ptr %2, align 8, !tbaa !4
  %4 = call i32 @XXH_read32(ptr noundef %3)
  ret i32 %4
}

; Function Attrs: alwaysinline nounwind uwtable
define internal i64 @XXH_readLE64(ptr noundef %0) #4 {
  %2 = alloca ptr, align 8
  store ptr %0, ptr %2, align 8, !tbaa !4
  %3 = load ptr, ptr %2, align 8, !tbaa !4
  %4 = call i64 @XXH_read64(ptr noundef %3)
  ret i64 %4
}

; Function Attrs: nounwind uwtable
define internal i64 @XXH64_avalanche(i64 noundef %0) #0 {
  %2 = alloca i64, align 8
  store i64 %0, ptr %2, align 8, !tbaa !15
  %3 = load i64, ptr %2, align 8, !tbaa !15
  %4 = lshr i64 %3, 33
  %5 = load i64, ptr %2, align 8, !tbaa !15
  %6 = xor i64 %5, %4
  store i64 %6, ptr %2, align 8, !tbaa !15
  %7 = load i64, ptr %2, align 8, !tbaa !15
  %8 = mul i64 %7, -4417276706812531889
  store i64 %8, ptr %2, align 8, !tbaa !15
  %9 = load i64, ptr %2, align 8, !tbaa !15
  %10 = lshr i64 %9, 29
  %11 = load i64, ptr %2, align 8, !tbaa !15
  %12 = xor i64 %11, %10
  store i64 %12, ptr %2, align 8, !tbaa !15
  %13 = load i64, ptr %2, align 8, !tbaa !15
  %14 = mul i64 %13, 1609587929392839161
  store i64 %14, ptr %2, align 8, !tbaa !15
  %15 = load i64, ptr %2, align 8, !tbaa !15
  %16 = lshr i64 %15, 32
  %17 = load i64, ptr %2, align 8, !tbaa !15
  %18 = xor i64 %17, %16
  store i64 %18, ptr %2, align 8, !tbaa !15
  %19 = load i64, ptr %2, align 8, !tbaa !15
  ret i64 %19
}

; Function Attrs: alwaysinline nounwind uwtable
define internal i32 @XXH_readLE32_align(ptr noundef %0, i32 noundef %1) #4 {
  %3 = alloca i32, align 4
  %4 = alloca ptr, align 8
  %5 = alloca i32, align 4
  store ptr %0, ptr %4, align 8, !tbaa !4
  store i32 %1, ptr %5, align 4, !tbaa !20
  %6 = load i32, ptr %5, align 4, !tbaa !20
  %7 = icmp eq i32 %6, 1
  br i1 %7, label %8, label %11

8:                                                ; preds = %2
  %9 = load ptr, ptr %4, align 8, !tbaa !4
  %10 = call i32 @XXH_readLE32(ptr noundef %9)
  store i32 %10, ptr %3, align 4
  br label %14

11:                                               ; preds = %2
  %12 = load ptr, ptr %4, align 8, !tbaa !4
  %13 = load i32, ptr %12, align 4, !tbaa !20
  store i32 %13, ptr %3, align 4
  br label %14

14:                                               ; preds = %11, %8
  %15 = load i32, ptr %3, align 4
  ret i32 %15
}

; Function Attrs: alwaysinline nounwind uwtable
define internal i64 @XXH_readLE64_align(ptr noundef %0, i32 noundef %1) #4 {
  %3 = alloca i64, align 8
  %4 = alloca ptr, align 8
  %5 = alloca i32, align 4
  store ptr %0, ptr %4, align 8, !tbaa !4
  store i32 %1, ptr %5, align 4, !tbaa !20
  %6 = load i32, ptr %5, align 4, !tbaa !20
  %7 = icmp eq i32 %6, 1
  br i1 %7, label %8, label %11

8:                                                ; preds = %2
  %9 = load ptr, ptr %4, align 8, !tbaa !4
  %10 = call i64 @XXH_readLE64(ptr noundef %9)
  store i64 %10, ptr %3, align 8
  br label %14

11:                                               ; preds = %2
  %12 = load ptr, ptr %4, align 8, !tbaa !4
  %13 = load i64, ptr %12, align 8, !tbaa !15
  store i64 %13, ptr %3, align 8
  br label %14

14:                                               ; preds = %11, %8
  %15 = load i64, ptr %3, align 8
  ret i64 %15
}

; Function Attrs: nounwind uwtable
define internal i64 @XXH64_round(i64 noundef %0, i64 noundef %1) #0 {
  %3 = alloca i64, align 8
  %4 = alloca i64, align 8
  store i64 %0, ptr %3, align 8, !tbaa !15
  store i64 %1, ptr %4, align 8, !tbaa !15
  %5 = load i64, ptr %4, align 8, !tbaa !15
  %6 = mul i64 %5, -4417276706812531889
  %7 = load i64, ptr %3, align 8, !tbaa !15
  %8 = add i64 %7, %6
  store i64 %8, ptr %3, align 8, !tbaa !15
  %9 = load i64, ptr %3, align 8, !tbaa !15
  %10 = call i64 @llvm.fshl.i64(i64 %9, i64 %9, i64 31)
  store i64 %10, ptr %3, align 8, !tbaa !15
  %11 = load i64, ptr %3, align 8, !tbaa !15
  %12 = mul i64 %11, -7046029288634856825
  store i64 %12, ptr %3, align 8, !tbaa !15
  %13 = load i64, ptr %3, align 8, !tbaa !15
  ret i64 %13
}

; Function Attrs: nounwind uwtable
define internal ptr @XXH_memcpy(ptr noundef %0, ptr noundef %1, i64 noundef %2) #0 {
  %4 = alloca ptr, align 8
  %5 = alloca ptr, align 8
  %6 = alloca i64, align 8
  store ptr %0, ptr %4, align 8, !tbaa !4
  store ptr %1, ptr %5, align 8, !tbaa !4
  store i64 %2, ptr %6, align 8, !tbaa !15
  %7 = load ptr, ptr %4, align 8, !tbaa !4
  %8 = load ptr, ptr %5, align 8, !tbaa !4
  %9 = load i64, ptr %6, align 8, !tbaa !15
  call void @llvm.memcpy.p0.p0.i64(ptr align 1 %7, ptr align 1 %8, i64 %9, i1 false)
  ret ptr %7
}

; Function Attrs: nounwind uwtable
define internal i64 @XXH_swap64(i64 noundef %0) #0 {
  %2 = alloca i64, align 8
  store i64 %0, ptr %2, align 8, !tbaa !15
  %3 = load i64, ptr %2, align 8, !tbaa !15
  %4 = shl i64 %3, 56
  %5 = and i64 %4, -72057594037927936
  %6 = load i64, ptr %2, align 8, !tbaa !15
  %7 = shl i64 %6, 40
  %8 = and i64 %7, 71776119061217280
  %9 = or i64 %5, %8
  %10 = load i64, ptr %2, align 8, !tbaa !15
  %11 = shl i64 %10, 24
  %12 = and i64 %11, 280375465082880
  %13 = or i64 %9, %12
  %14 = load i64, ptr %2, align 8, !tbaa !15
  %15 = shl i64 %14, 8
  %16 = and i64 %15, 1095216660480
  %17 = or i64 %13, %16
  %18 = load i64, ptr %2, align 8, !tbaa !15
  %19 = lshr i64 %18, 8
  %20 = and i64 %19, 4278190080
  %21 = or i64 %17, %20
  %22 = load i64, ptr %2, align 8, !tbaa !15
  %23 = lshr i64 %22, 24
  %24 = and i64 %23, 16711680
  %25 = or i64 %21, %24
  %26 = load i64, ptr %2, align 8, !tbaa !15
  %27 = lshr i64 %26, 40
  %28 = and i64 %27, 65280
  %29 = or i64 %25, %28
  %30 = load i64, ptr %2, align 8, !tbaa !15
  %31 = lshr i64 %30, 56
  %32 = and i64 %31, 255
  %33 = or i64 %29, %32
  ret i64 %33
}

; Function Attrs: nounwind uwtable
define internal i64 @XXH64_finalize(i64 noundef %0, ptr noundef %1, i64 noundef %2, i32 noundef %3) #0 {
  %5 = alloca i64, align 8
  %6 = alloca ptr, align 8
  %7 = alloca i64, align 8
  %8 = alloca i32, align 4
  %9 = alloca i64, align 8
  store i64 %0, ptr %5, align 8, !tbaa !15
  store ptr %1, ptr %6, align 8, !tbaa !13
  store i64 %2, ptr %7, align 8, !tbaa !15
  store i32 %3, ptr %8, align 4, !tbaa !20
  %10 = load ptr, ptr %6, align 8, !tbaa !13
  %11 = icmp eq ptr %10, null
  br i1 %11, label %12, label %13

12:                                               ; preds = %4
  br label %13

13:                                               ; preds = %12, %4
  %14 = load i64, ptr %7, align 8, !tbaa !15
  %15 = and i64 %14, 31
  store i64 %15, ptr %7, align 8, !tbaa !15
  br label %16

16:                                               ; preds = %19, %13
  %17 = load i64, ptr %7, align 8, !tbaa !15
  %18 = icmp uge i64 %17, 8
  br i1 %18, label %19, label %35

19:                                               ; preds = %16
  call void @llvm.lifetime.start.p0(i64 8, ptr %9) #14
  %20 = load ptr, ptr %6, align 8, !tbaa !13
  %21 = load i32, ptr %8, align 4, !tbaa !20
  %22 = call i64 @XXH_readLE64_align(ptr noundef %20, i32 noundef %21)
  %23 = call i64 @XXH64_round(i64 noundef 0, i64 noundef %22)
  store i64 %23, ptr %9, align 8, !tbaa !15
  %24 = load ptr, ptr %6, align 8, !tbaa !13
  %25 = getelementptr inbounds i8, ptr %24, i64 8
  store ptr %25, ptr %6, align 8, !tbaa !13
  %26 = load i64, ptr %9, align 8, !tbaa !15
  %27 = load i64, ptr %5, align 8, !tbaa !15
  %28 = xor i64 %27, %26
  store i64 %28, ptr %5, align 8, !tbaa !15
  %29 = load i64, ptr %5, align 8, !tbaa !15
  %30 = call i64 @llvm.fshl.i64(i64 %29, i64 %29, i64 27)
  %31 = mul i64 %30, -7046029288634856825
  %32 = add i64 %31, -8796714831421723037
  store i64 %32, ptr %5, align 8, !tbaa !15
  %33 = load i64, ptr %7, align 8, !tbaa !15
  %34 = sub i64 %33, 8
  store i64 %34, ptr %7, align 8, !tbaa !15
  call void @llvm.lifetime.end.p0(i64 8, ptr %9) #14
  br label %16

35:                                               ; preds = %16
  %36 = load i64, ptr %7, align 8, !tbaa !15
  %37 = icmp uge i64 %36, 4
  br i1 %37, label %38, label %54

38:                                               ; preds = %35
  %39 = load ptr, ptr %6, align 8, !tbaa !13
  %40 = load i32, ptr %8, align 4, !tbaa !20
  %41 = call i32 @XXH_readLE32_align(ptr noundef %39, i32 noundef %40)
  %42 = zext i32 %41 to i64
  %43 = mul i64 %42, -7046029288634856825
  %44 = load i64, ptr %5, align 8, !tbaa !15
  %45 = xor i64 %44, %43
  store i64 %45, ptr %5, align 8, !tbaa !15
  %46 = load ptr, ptr %6, align 8, !tbaa !13
  %47 = getelementptr inbounds i8, ptr %46, i64 4
  store ptr %47, ptr %6, align 8, !tbaa !13
  %48 = load i64, ptr %5, align 8, !tbaa !15
  %49 = call i64 @llvm.fshl.i64(i64 %48, i64 %48, i64 23)
  %50 = mul i64 %49, -4417276706812531889
  %51 = add i64 %50, 1609587929392839161
  store i64 %51, ptr %5, align 8, !tbaa !15
  %52 = load i64, ptr %7, align 8, !tbaa !15
  %53 = sub i64 %52, 4
  store i64 %53, ptr %7, align 8, !tbaa !15
  br label %54

54:                                               ; preds = %38, %35
  br label %55

55:                                               ; preds = %58, %54
  %56 = load i64, ptr %7, align 8, !tbaa !15
  %57 = icmp ugt i64 %56, 0
  br i1 %57, label %58, label %71

58:                                               ; preds = %55
  %59 = load ptr, ptr %6, align 8, !tbaa !13
  %60 = getelementptr inbounds nuw i8, ptr %59, i32 1
  store ptr %60, ptr %6, align 8, !tbaa !13
  %61 = load i8, ptr %59, align 1, !tbaa !12
  %62 = zext i8 %61 to i64
  %63 = mul i64 %62, 2870177450012600261
  %64 = load i64, ptr %5, align 8, !tbaa !15
  %65 = xor i64 %64, %63
  store i64 %65, ptr %5, align 8, !tbaa !15
  %66 = load i64, ptr %5, align 8, !tbaa !15
  %67 = call i64 @llvm.fshl.i64(i64 %66, i64 %66, i64 11)
  %68 = mul i64 %67, -7046029288634856825
  store i64 %68, ptr %5, align 8, !tbaa !15
  %69 = load i64, ptr %7, align 8, !tbaa !15
  %70 = add i64 %69, -1
  store i64 %70, ptr %7, align 8, !tbaa !15
  br label %55

71:                                               ; preds = %55
  %72 = load i64, ptr %5, align 8, !tbaa !15
  %73 = call i64 @XXH64_avalanche(i64 noundef %72)
  ret i64 %73
}

; Function Attrs: nounwind uwtable
define internal i64 @XXH64_mergeRound(i64 noundef %0, i64 noundef %1) #0 {
  %3 = alloca i64, align 8
  %4 = alloca i64, align 8
  store i64 %0, ptr %3, align 8, !tbaa !15
  store i64 %1, ptr %4, align 8, !tbaa !15
  %5 = load i64, ptr %4, align 8, !tbaa !15
  %6 = call i64 @XXH64_round(i64 noundef 0, i64 noundef %5)
  store i64 %6, ptr %4, align 8, !tbaa !15
  %7 = load i64, ptr %4, align 8, !tbaa !15
  %8 = load i64, ptr %3, align 8, !tbaa !15
  %9 = xor i64 %8, %7
  store i64 %9, ptr %3, align 8, !tbaa !15
  %10 = load i64, ptr %3, align 8, !tbaa !15
  %11 = mul i64 %10, -7046029288634856825
  %12 = add i64 %11, -8796714831421723037
  store i64 %12, ptr %3, align 8, !tbaa !15
  %13 = load i64, ptr %3, align 8, !tbaa !15
  ret i64 %13
}

; Function Attrs: inlinehint nounwind uwtable
define internal void @XXH_INLINE_XXH64_canonicalFromHash(ptr noundef %0, i64 noundef %1) #5 {
  %3 = alloca ptr, align 8
  %4 = alloca i64, align 8
  store ptr %0, ptr %3, align 8, !tbaa !4
  store i64 %1, ptr %4, align 8, !tbaa !15
  br label %5

5:                                                ; preds = %2
  br label %6

6:                                                ; preds = %5
  %7 = load i64, ptr %4, align 8, !tbaa !15
  %8 = call i64 @XXH_swap64(i64 noundef %7)
  store i64 %8, ptr %4, align 8, !tbaa !15
  %9 = load ptr, ptr %3, align 8, !tbaa !4
  %10 = call ptr @XXH_memcpy(ptr noundef %9, ptr noundef %4, i64 noundef 8)
  ret void
}

; Function Attrs: inlinehint nounwind uwtable
define internal i64 @XXH_INLINE_XXH64_digest(ptr noundef %0) #5 {
  %2 = alloca ptr, align 8
  %3 = alloca i64, align 8
  store ptr %0, ptr %2, align 8, !tbaa !44
  call void @llvm.lifetime.start.p0(i64 8, ptr %3) #14
  %4 = load ptr, ptr %2, align 8, !tbaa !44
  %5 = getelementptr inbounds nuw %struct.XXH_NAMESPACEXXH64_state_s, ptr %4, i32 0, i32 0
  %6 = load i64, ptr %5, align 8, !tbaa !46
  %7 = icmp uge i64 %6, 32
  br i1 %7, label %8, label %56

8:                                                ; preds = %1
  %9 = load ptr, ptr %2, align 8, !tbaa !44
  %10 = getelementptr inbounds nuw %struct.XXH_NAMESPACEXXH64_state_s, ptr %9, i32 0, i32 1
  %11 = getelementptr inbounds [4 x i64], ptr %10, i64 0, i64 0
  %12 = load i64, ptr %11, align 8, !tbaa !15
  %13 = call i64 @llvm.fshl.i64(i64 %12, i64 %12, i64 1)
  %14 = load ptr, ptr %2, align 8, !tbaa !44
  %15 = getelementptr inbounds nuw %struct.XXH_NAMESPACEXXH64_state_s, ptr %14, i32 0, i32 1
  %16 = getelementptr inbounds [4 x i64], ptr %15, i64 0, i64 1
  %17 = load i64, ptr %16, align 8, !tbaa !15
  %18 = call i64 @llvm.fshl.i64(i64 %17, i64 %17, i64 7)
  %19 = add i64 %13, %18
  %20 = load ptr, ptr %2, align 8, !tbaa !44
  %21 = getelementptr inbounds nuw %struct.XXH_NAMESPACEXXH64_state_s, ptr %20, i32 0, i32 1
  %22 = getelementptr inbounds [4 x i64], ptr %21, i64 0, i64 2
  %23 = load i64, ptr %22, align 8, !tbaa !15
  %24 = call i64 @llvm.fshl.i64(i64 %23, i64 %23, i64 12)
  %25 = add i64 %19, %24
  %26 = load ptr, ptr %2, align 8, !tbaa !44
  %27 = getelementptr inbounds nuw %struct.XXH_NAMESPACEXXH64_state_s, ptr %26, i32 0, i32 1
  %28 = getelementptr inbounds [4 x i64], ptr %27, i64 0, i64 3
  %29 = load i64, ptr %28, align 8, !tbaa !15
  %30 = call i64 @llvm.fshl.i64(i64 %29, i64 %29, i64 18)
  %31 = add i64 %25, %30
  store i64 %31, ptr %3, align 8, !tbaa !15
  %32 = load i64, ptr %3, align 8, !tbaa !15
  %33 = load ptr, ptr %2, align 8, !tbaa !44
  %34 = getelementptr inbounds nuw %struct.XXH_NAMESPACEXXH64_state_s, ptr %33, i32 0, i32 1
  %35 = getelementptr inbounds [4 x i64], ptr %34, i64 0, i64 0
  %36 = load i64, ptr %35, align 8, !tbaa !15
  %37 = call i64 @XXH64_mergeRound(i64 noundef %32, i64 noundef %36)
  store i64 %37, ptr %3, align 8, !tbaa !15
  %38 = load i64, ptr %3, align 8, !tbaa !15
  %39 = load ptr, ptr %2, align 8, !tbaa !44
  %40 = getelementptr inbounds nuw %struct.XXH_NAMESPACEXXH64_state_s, ptr %39, i32 0, i32 1
  %41 = getelementptr inbounds [4 x i64], ptr %40, i64 0, i64 1
  %42 = load i64, ptr %41, align 8, !tbaa !15
  %43 = call i64 @XXH64_mergeRound(i64 noundef %38, i64 noundef %42)
  store i64 %43, ptr %3, align 8, !tbaa !15
  %44 = load i64, ptr %3, align 8, !tbaa !15
  %45 = load ptr, ptr %2, align 8, !tbaa !44
  %46 = getelementptr inbounds nuw %struct.XXH_NAMESPACEXXH64_state_s, ptr %45, i32 0, i32 1
  %47 = getelementptr inbounds [4 x i64], ptr %46, i64 0, i64 2
  %48 = load i64, ptr %47, align 8, !tbaa !15
  %49 = call i64 @XXH64_mergeRound(i64 noundef %44, i64 noundef %48)
  store i64 %49, ptr %3, align 8, !tbaa !15
  %50 = load i64, ptr %3, align 8, !tbaa !15
  %51 = load ptr, ptr %2, align 8, !tbaa !44
  %52 = getelementptr inbounds nuw %struct.XXH_NAMESPACEXXH64_state_s, ptr %51, i32 0, i32 1
  %53 = getelementptr inbounds [4 x i64], ptr %52, i64 0, i64 3
  %54 = load i64, ptr %53, align 8, !tbaa !15
  %55 = call i64 @XXH64_mergeRound(i64 noundef %50, i64 noundef %54)
  store i64 %55, ptr %3, align 8, !tbaa !15
  br label %62

56:                                               ; preds = %1
  %57 = load ptr, ptr %2, align 8, !tbaa !44
  %58 = getelementptr inbounds nuw %struct.XXH_NAMESPACEXXH64_state_s, ptr %57, i32 0, i32 1
  %59 = getelementptr inbounds [4 x i64], ptr %58, i64 0, i64 2
  %60 = load i64, ptr %59, align 8, !tbaa !15
  %61 = add i64 %60, 2870177450012600261
  store i64 %61, ptr %3, align 8, !tbaa !15
  br label %62

62:                                               ; preds = %56, %8
  %63 = load ptr, ptr %2, align 8, !tbaa !44
  %64 = getelementptr inbounds nuw %struct.XXH_NAMESPACEXXH64_state_s, ptr %63, i32 0, i32 0
  %65 = load i64, ptr %64, align 8, !tbaa !46
  %66 = load i64, ptr %3, align 8, !tbaa !15
  %67 = add i64 %66, %65
  store i64 %67, ptr %3, align 8, !tbaa !15
  %68 = load i64, ptr %3, align 8, !tbaa !15
  %69 = load ptr, ptr %2, align 8, !tbaa !44
  %70 = getelementptr inbounds nuw %struct.XXH_NAMESPACEXXH64_state_s, ptr %69, i32 0, i32 2
  %71 = getelementptr inbounds [4 x i64], ptr %70, i64 0, i64 0
  %72 = load ptr, ptr %2, align 8, !tbaa !44
  %73 = getelementptr inbounds nuw %struct.XXH_NAMESPACEXXH64_state_s, ptr %72, i32 0, i32 0
  %74 = load i64, ptr %73, align 8, !tbaa !46
  %75 = call i64 @XXH64_finalize(i64 noundef %68, ptr noundef %71, i64 noundef %74, i32 noundef 0)
  call void @llvm.lifetime.end.p0(i64 8, ptr %3) #14
  ret i64 %75
}

; Function Attrs: nounwind uwtable
define dso_local void @PHP_XXH64Final(ptr noundef %0, ptr noundef %1) #0 {
  %3 = alloca ptr, align 8
  %4 = alloca ptr, align 8
  store ptr %0, ptr %3, align 8, !tbaa !13
  store ptr %1, ptr %4, align 8, !tbaa !4
  %5 = load ptr, ptr %3, align 8, !tbaa !13
  %6 = load ptr, ptr %4, align 8, !tbaa !4
  %7 = getelementptr inbounds nuw %struct.PHP_XXH64_CTX, ptr %6, i32 0, i32 0
  %8 = call i64 @XXH_INLINE_XXH64_digest(ptr noundef %7)
  call void @XXH_INLINE_XXH64_canonicalFromHash(ptr noundef %5, i64 noundef %8)
  ret void
}