; Function Attrs: nofree norecurse nosync nounwind memory(argmem: readwrite) uwtable
define dso_local void @PHP_XXH64Final(ptr noundef writeonly captures(none) %0, ptr noundef readonly captures(none) %1) #1 {
  %3 = load i64, ptr %1, align 8, !tbaa !28
  %4 = icmp ugt i64 %3, 31
  br i1 %4, label %5, label %45

5:                                                ; preds = %2
  %6 = getelementptr inbounds nuw i8, ptr %1, i64 8
  %7 = load i64, ptr %6, align 8, !tbaa !31
  %8 = tail call i64 @llvm.fshl.i64(i64 %7, i64 %7, i64 1)
  %9 = getelementptr inbounds nuw i8, ptr %1, i64 16
  %10 = load i64, ptr %9, align 8, !tbaa !31
  %11 = tail call i64 @llvm.fshl.i64(i64 %10, i64 %10, i64 7)
  %12 = add i64 %11, %8
  %13 = getelementptr inbounds nuw i8, ptr %1, i64 24
  %14 = load i64, ptr %13, align 8, !tbaa !31
  %15 = tail call i64 @llvm.fshl.i64(i64 %14, i64 %14, i64 12)
  %16 = add i64 %12, %15
  %17 = getelementptr inbounds nuw i8, ptr %1, i64 32
  %18 = load i64, ptr %17, align 8, !tbaa !31
  %19 = tail call i64 @llvm.fshl.i64(i64 %18, i64 %18, i64 18)
  %20 = add i64 %16, %19
  %21 = mul i64 %7, -4417276706812531889
  %22 = tail call i64 @llvm.fshl.i64(i64 %21, i64 %21, i64 31)
  %23 = mul i64 %22, -7046029288634856825
  %24 = xor i64 %20, %23
  %25 = mul i64 %24, -7046029288634856825
  %26 = add i64 %25, -8796714831421723037
  %27 = mul i64 %10, -4417276706812531889
  %28 = tail call i64 @llvm.fshl.i64(i64 %27, i64 %27, i64 31)
  %29 = mul i64 %28, -7046029288634856825
  %30 = xor i64 %26, %29
  %31 = mul i64 %30, -7046029288634856825
  %32 = add i64 %31, -8796714831421723037
  %33 = mul i64 %14, -4417276706812531889
  %34 = tail call i64 @llvm.fshl.i64(i64 %33, i64 %33, i64 31)
  %35 = mul i64 %34, -7046029288634856825
  %36 = xor i64 %32, %35
  %37 = mul i64 %36, -7046029288634856825
  %38 = add i64 %37, -8796714831421723037
  %39 = mul i64 %18, -4417276706812531889
  %40 = tail call i64 @llvm.fshl.i64(i64 %39, i64 %39, i64 31)
  %41 = mul i64 %40, -7046029288634856825
  %42 = xor i64 %38, %41
  %43 = mul i64 %42, -7046029288634856825
  %44 = add i64 %43, -8796714831421723037
  br label %49

45:                                               ; preds = %2
  %46 = getelementptr inbounds nuw i8, ptr %1, i64 24
  %47 = load i64, ptr %46, align 8, !tbaa !31
  %48 = add i64 %47, 2870177450012600261
  br label %49

49:                                               ; preds = %45, %5
  %.0.i = phi i64 [ %44, %5 ], [ %48, %45 ]
  %50 = add i64 %.0.i, %3
  %51 = getelementptr inbounds nuw i8, ptr %1, i64 40
  %52 = and i64 %3, 31
  %53 = icmp samesign ugt i64 %52, 7
  br i1 %53, label %.lr.ph.i.i, label %._crit_edge.i.i

.lr.ph.i.i:                                       ; preds = %49, %.lr.ph.i.i
  %.030.i.i = phi i64 [ %62, %.lr.ph.i.i ], [ %50, %49 ]
  %.02229.i.i = phi ptr [ %58, %.lr.ph.i.i ], [ %51, %49 ]
  %.02528.i.i = phi i64 [ %63, %.lr.ph.i.i ], [ %52, %49 ]
  %54 = load i64, ptr %.02229.i.i, align 8, !tbaa !31
  %55 = mul i64 %54, -4417276706812531889
  %56 = tail call i64 @llvm.fshl.i64(i64 %55, i64 %55, i64 31)
  %57 = mul i64 %56, -7046029288634856825
  %58 = getelementptr inbounds nuw i8, ptr %.02229.i.i, i64 8
  %59 = xor i64 %57, %.030.i.i
  %60 = tail call i64 @llvm.fshl.i64(i64 %59, i64 %59, i64 27)
  %61 = mul i64 %60, -7046029288634856825
  %62 = add i64 %61, -8796714831421723037
  %63 = add nsw i64 %.02528.i.i, -8
  %64 = icmp ugt i64 %63, 7
  br i1 %64, label %.lr.ph.i.i, label %._crit_edge.i.i

._crit_edge.i.i:                                  ; preds = %.lr.ph.i.i, %49
  %.025.lcssa.i.i = phi i64 [ %52, %49 ], [ %63, %.lr.ph.i.i ]
  %.022.lcssa.i.i = phi ptr [ %51, %49 ], [ %58, %.lr.ph.i.i ]
  %.0.lcssa.i.i = phi i64 [ %50, %49 ], [ %62, %.lr.ph.i.i ]
  %65 = icmp samesign ugt i64 %.025.lcssa.i.i, 3
  br i1 %65, label %66, label %76

66:                                               ; preds = %._crit_edge.i.i
  %67 = load i32, ptr %.022.lcssa.i.i, align 4, !tbaa !13
  %68 = zext i32 %67 to i64
  %69 = mul i64 %68, -7046029288634856825
  %70 = xor i64 %69, %.0.lcssa.i.i
  %71 = getelementptr inbounds nuw i8, ptr %.022.lcssa.i.i, i64 4
  %72 = tail call i64 @llvm.fshl.i64(i64 %70, i64 %70, i64 23)
  %73 = mul i64 %72, -4417276706812531889
  %74 = add i64 %73, 1609587929392839161
  %75 = add nsw i64 %.025.lcssa.i.i, -4
  br label %76

76:                                               ; preds = %66, %._crit_edge.i.i
  %.126.i.i = phi i64 [ %75, %66 ], [ %.025.lcssa.i.i, %._crit_edge.i.i ]
  %.123.i.i = phi ptr [ %71, %66 ], [ %.022.lcssa.i.i, %._crit_edge.i.i ]
  %.1.i.i = phi i64 [ %74, %66 ], [ %.0.lcssa.i.i, %._crit_edge.i.i ]
  %.not33.i.i = icmp eq i64 %.126.i.i, 0
  br i1 %.not33.i.i, label %XXH_INLINE_XXH64_digest.exit, label %.lr.ph38.i.i

.lr.ph38.i.i:                                     ; preds = %76, %.lr.ph38.i.i
  %.236.i.i = phi i64 [ %83, %.lr.ph38.i.i ], [ %.1.i.i, %76 ]
  %.22435.i.i = phi ptr [ %77, %.lr.ph38.i.i ], [ %.123.i.i, %76 ]
  %.22734.i.i = phi i64 [ %84, %.lr.ph38.i.i ], [ %.126.i.i, %76 ]
  %77 = getelementptr inbounds nuw i8, ptr %.22435.i.i, i64 1
  %78 = load i8, ptr %.22435.i.i, align 1, !tbaa !4
  %79 = zext i8 %78 to i64
  %80 = mul i64 %79, 2870177450012600261
  %81 = xor i64 %80, %.236.i.i
  %82 = tail call i64 @llvm.fshl.i64(i64 %81, i64 %81, i64 11)
  %83 = mul i64 %82, -7046029288634856825
  %84 = add nsw i64 %.22734.i.i, -1
  %.not.i.i = icmp eq i64 %84, 0
  br i1 %.not.i.i, label %XXH_INLINE_XXH64_digest.exit, label %.lr.ph38.i.i

XXH_INLINE_XXH64_digest.exit:                     ; preds = %.lr.ph38.i.i, %76
  %.2.lcssa.i.i = phi i64 [ %.1.i.i, %76 ], [ %83, %.lr.ph38.i.i ]
  %85 = lshr i64 %.2.lcssa.i.i, 33
  %86 = xor i64 %85, %.2.lcssa.i.i
  %87 = mul i64 %86, -4417276706812531889
  %88 = lshr i64 %87, 29
  %89 = xor i64 %88, %87
  %90 = mul i64 %89, 1609587929392839161
  %91 = lshr i64 %90, 32
  %92 = xor i64 %91, %90
  %93 = tail call noundef i64 @llvm.bswap.i64(i64 %92)
  store i64 %93, ptr %0, align 1
  ret void
}